target datalayout = "e-m:e-p270:32:32-p271:32:32-p272:64:64-i64:64-i128:128-f80:128-n8:16:32:64-S128"
target triple = "x86_64-pc-linux-gnu"

; Function Attrs: nounwind uwtable
define internal void @eotf_smpte_st428_1_inv(double noundef %0, double noundef %1, ptr noundef %2) #0 {
  %4 = alloca double, align 8
  %5 = alloca double, align 8
  %6 = alloca ptr, align 8
  %7 = alloca [3 x double], align 16
  %8 = alloca [3 x double], align 16
  %9 = alloca i32, align 4
  store double %0, ptr %4, align 8, !tbaa !27
  store double %1, ptr %5, align 8, !tbaa !27
  store ptr %2, ptr %6, align 8, !tbaa !30
  call void @llvm.lifetime.start.p0(i64 24, ptr %7) #7
  %10 = load double, ptr %4, align 8, !tbaa !27
  %11 = fmul nsz double 0x3FECA06D3A06D3A0, %10
  store double %11, ptr %7, align 8, !tbaa !27
  %12 = getelementptr inbounds double, ptr %7, i64 1
  %13 = load double, ptr %4, align 8, !tbaa !27
  store double %13, ptr %12, align 8, !tbaa !27
  %14 = getelementptr inbounds double, ptr %7, i64 2
  %15 = load double, ptr %4, align 8, !tbaa !27
  %16 = fmul nsz double 0x3FEE8BF258BF258C, %15
  store double %16, ptr %14, align 8, !tbaa !27
  call void @llvm.lifetime.start.p0(i64 24, ptr %8) #7
  %17 = load double, ptr %5, align 8, !tbaa !27
  %18 = fmul nsz double 0x3FECA06D3A06D3A0, %17
  store double %18, ptr %8, align 8, !tbaa !27
  %19 = getelementptr inbounds double, ptr %8, i64 1
  %20 = load double, ptr %5, align 8, !tbaa !27
  store double %20, ptr %19, align 8, !tbaa !27
  %21 = getelementptr inbounds double, ptr %8, i64 2
  %22 = load double, ptr %5, align 8, !tbaa !27
  %23 = fmul nsz double 0x3FEE8BF258BF258C, %22
  store double %23, ptr %21, align 8, !tbaa !27
  call void @llvm.lifetime.start.p0(i64 4, ptr %9) #7
  store i32 0, ptr %9, align 4, !tbaa !4
  br label %24

24:                                               ; preds = %75, %3
  %25 = load i32, ptr %9, align 4, !tbaa !4
  %26 = icmp slt i32 %25, 3
  br i1 %26, label %28, label %27

27:                                               ; preds = %24
  call void @llvm.lifetime.end.p0(i64 4, ptr %9) #7
  br label %78

28:                                               ; preds = %24
  %29 = load ptr, ptr %6, align 8, !tbaa !30
  %30 = load i32, ptr %9, align 4, !tbaa !4
  %31 = sext i32 %30 to i64
  %32 = getelementptr inbounds double, ptr %29, i64 %31
  %33 = load double, ptr %32, align 8, !tbaa !27
  %34 = load i32, ptr %9, align 4, !tbaa !4
  %35 = sext i32 %34 to i64
  %36 = getelementptr inbounds [3 x double], ptr %8, i64 0, i64 %35
  %37 = load double, ptr %36, align 8, !tbaa !27
  %38 = fsub nsz double %33, %37
  %39 = load i32, ptr %9, align 4, !tbaa !4
  %40 = sext i32 %39 to i64
  %41 = getelementptr inbounds [3 x double], ptr %7, i64 0, i64 %40
  %42 = load double, ptr %41, align 8, !tbaa !27
  %43 = load i32, ptr %9, align 4, !tbaa !4
  %44 = sext i32 %43 to i64
  %45 = getelementptr inbounds [3 x double], ptr %8, i64 0, i64 %44
  %46 = load double, ptr %45, align 8, !tbaa !27
  %47 = fsub nsz double %42, %46
  %48 = fdiv nsz double %38, %47
  %49 = load ptr, ptr %6, align 8, !tbaa !30
  %50 = load i32, ptr %9, align 4, !tbaa !4
  %51 = sext i32 %50 to i64
  %52 = getelementptr inbounds double, ptr %49, i64 %51
  store double %48, ptr %52, align 8, !tbaa !27
  %53 = load ptr, ptr %6, align 8, !tbaa !30
  %54 = load i32, ptr %9, align 4, !tbaa !4
  %55 = sext i32 %54 to i64
  %56 = getelementptr inbounds double, ptr %53, i64 %55
  %57 = load double, ptr %56, align 8, !tbaa !27
  %58 = fcmp nsz ogt double 0.000000e+00, %57
  br i1 %58, label %59, label %60

59:                                               ; preds = %28
  br label %69

60:                                               ; preds = %28
  %61 = load ptr, ptr %6, align 8, !tbaa !30
  %62 = load i32, ptr %9, align 4, !tbaa !4
  %63 = sext i32 %62 to i64
  %64 = getelementptr inbounds double, ptr %61, i64 %63
  %65 = load double, ptr %64, align 8, !tbaa !27
  %66 = fmul nsz double %65, 4.800000e+01
  %67 = fdiv nsz double %66, 5.237000e+01
  %68 = call nsz double @llvm.pow.f64(double %67, double 0x3FD89D89D89D89D8)
  br label %69

69:                                               ; preds = %60, %59
  %70 = phi nsz double [ 0.000000e+00, %59 ], [ %68, %60 ]
  %71 = load ptr, ptr %6, align 8, !tbaa !30
  %72 = load i32, ptr %9, align 4, !tbaa !4
  %73 = sext i32 %72 to i64
  %74 = getelementptr inbounds double, ptr %71, i64 %73
  store double %70, ptr %74, align 8, !tbaa !27
  br label %75

75:                                               ; preds = %69
  %76 = load i32, ptr %9, align 4, !tbaa !4
  %77 = add nsw i32 %76, 1
  store i32 %77, ptr %9, align 4, !tbaa !4
  br label %24, !llvm.loop !44

78:                                               ; preds = %27
  call void @llvm.lifetime.end.p0(i64 24, ptr %8) #7
  call void @llvm.lifetime.end.p0(i64 24, ptr %7) #7
  ret void
}